; ModuleID = '21/1986.cpp'
source_filename = "21/1986.cpp"
target datalayout = "e-m:e-p270:32:32-p271:32:32-p272:64:64-i64:64-f80:128-n8:16:32:64-S128"
target triple = "x86_64-pc-linux-gnu"

%"class.std::ios_base::Init" = type { i8 }
%"class.std::basic_istream" = type { i32 (...)**, i64, %"class.std::basic_ios" }
%"class.std::basic_ios" = type { %"class.std::ios_base", %"class.std::basic_ostream"*, i8, i8, %"class.std::basic_streambuf"*, %"class.std::ctype"*, %"class.std::num_put"*, %"class.std::num_get"* }
%"class.std::ios_base" = type { i32 (...)**, i64, i64, i32, i32, i32, %"struct.std::ios_base::_Callback_list"*, %"struct.std::ios_base::_Words", [8 x %"struct.std::ios_base::_Words"], i32, %"struct.std::ios_base::_Words"*, %"class.std::locale" }
%"struct.std::ios_base::_Callback_list" = type { %"struct.std::ios_base::_Callback_list"*, void (i32, %"class.std::ios_base"*, i32)*, i32, i32 }
%"struct.std::ios_base::_Words" = type { i8*, i64 }
%"class.std::locale" = type { %"class.std::locale::_Impl"* }
%"class.std::locale::_Impl" = type { i32, %"class.std::locale::facet"**, i64, %"class.std::locale::facet"**, i8** }
%"class.std::locale::facet" = type <{ i32 (...)**, i32, [4 x i8] }>
%"class.std::basic_ostream" = type { i32 (...)**, %"class.std::basic_ios" }
%"class.std::basic_streambuf" = type { i32 (...)**, i8*, i8*, i8*, i8*, i8*, i8*, %"class.std::locale" }
%"class.std::ctype" = type <{ %"class.std::locale::facet.base", [4 x i8], %struct.__locale_struct*, i8, [7 x i8], i32*, i32*, i16*, i8, [256 x i8], [256 x i8], i8, [6 x i8] }>
%"class.std::locale::facet.base" = type <{ i32 (...)**, i32 }>
%struct.__locale_struct = type { [13 x %struct.__locale_data*], i16*, i32*, i32*, [13 x i8*] }
%struct.__locale_data = type opaque
%"class.std::num_put" = type { %"class.std::locale::facet.base", [4 x i8] }
%"class.std::num_get" = type { %"class.std::locale::facet.base", [4 x i8] }

$_ZSt4fabsf = comdat any

@_ZStL8__ioinit = internal global %"class.std::ios_base::Init" zeroinitializer, align 1
@__dso_handle = external hidden global i8
@_ZSt3cin = external dso_local global %"class.std::basic_istream", align 8
@_ZSt4cout = external dso_local global %"class.std::basic_ostream", align 8
@.str = private unnamed_addr constant [2 x i8] c",\00", align 1
@llvm.global_ctors = appending global [1 x { i32, void ()*, i8* }] [{ i32, void ()*, i8* } { i32 65535, void ()* @_GLOBAL__sub_I_1986.cpp, i8* null }]

; Function Attrs: noinline uwtable
define internal void @__cxx_global_var_init() #0 section ".text.startup" {
  call void @_ZNSt8ios_base4InitC1Ev(%"class.std::ios_base::Init"* @_ZStL8__ioinit)
  %1 = call i32 @__cxa_atexit(void (i8*)* bitcast (void (%"class.std::ios_base::Init"*)* @_ZNSt8ios_base4InitD1Ev to void (i8*)*), i8* getelementptr inbounds (%"class.std::ios_base::Init", %"class.std::ios_base::Init"* @_ZStL8__ioinit, i32 0, i32 0), i8* @__dso_handle) #3
  ret void
}

declare dso_local void @_ZNSt8ios_base4InitC1Ev(%"class.std::ios_base::Init"*) unnamed_addr #1

; Function Attrs: nounwind
declare dso_local void @_ZNSt8ios_base4InitD1Ev(%"class.std::ios_base::Init"*) unnamed_addr #2

; Function Attrs: nounwind
declare dso_local i32 @__cxa_atexit(void (i8*)*, i8*, i8*) #3

; Function Attrs: noinline norecurse uwtable
define dso_local i32 @main() #4 {
  %1 = alloca i32, align 4
  %2 = alloca i32, align 4
  %3 = alloca i32, align 4
  %4 = alloca [300 x float], align 16
  %5 = alloca float, align 4
  %6 = alloca float, align 4
  %7 = alloca float, align 4
  store i32 0, i32* %1, align 4
  store float 0.000000e+00, float* %5, align 4
  store float 0.000000e+00, float* %6, align 4
  %8 = call dereferenceable(280) %"class.std::basic_istream"* @_ZNSirsERi(%"class.std::basic_istream"* @_ZSt3cin, i32* dereferenceable(4) %2)
  store i32 0, i32* %3, align 4
  br label %9

9:                                                ; preds = %24, %0
  %10 = load i32, i32* %3, align 4
  %11 = load i32, i32* %2, align 4
  %12 = icmp slt i32 %10, %11
  br i1 %12, label %13, label %27

13:                                               ; preds = %9
  %14 = load i32, i32* %3, align 4
  %15 = sext i32 %14 to i64
  %16 = getelementptr inbounds [300 x float], [300 x float]* %4, i64 0, i64 %15
  %17 = call dereferenceable(280) %"class.std::basic_istream"* @_ZNSirsERf(%"class.std::basic_istream"* @_ZSt3cin, float* dereferenceable(4) %16)
  %18 = load i32, i32* %3, align 4
  %19 = sext i32 %18 to i64
  %20 = getelementptr inbounds [300 x float], [300 x float]* %4, i64 0, i64 %19
  %21 = load float, float* %20, align 4
  %22 = load float, float* %5, align 4
  %23 = fadd float %22, %21
  store float %23, float* %5, align 4
  br label %24

24:                                               ; preds = %13
  %25 = load i32, i32* %3, align 4
  %26 = add nsw i32 %25, 1
  store i32 %26, i32* %3, align 4
  br label %9

27:                                               ; preds = %9
  %28 = load i32, i32* %2, align 4
  %29 = sitofp i32 %28 to float
  %30 = load float, float* %5, align 4
  %31 = fdiv float %30, %29
  store float %31, float* %5, align 4
  store i32 0, i32* %3, align 4
  br label %32

32:                                               ; preds = %59, %27
  %33 = load i32, i32* %3, align 4
  %34 = load i32, i32* %2, align 4
  %35 = icmp slt i32 %33, %34
  br i1 %35, label %36, label %62

36:                                               ; preds = %32
  %37 = load i32, i32* %3, align 4
  %38 = sext i32 %37 to i64
  %39 = getelementptr inbounds [300 x float], [300 x float]* %4, i64 0, i64 %38
  %40 = load float, float* %39, align 4
  %41 = load float, float* %5, align 4
  %42 = fsub float %40, %41
  %43 = call float @_ZSt4fabsf(float %42)
  %44 = load float, float* %6, align 4
  %45 = fcmp oge float %43, %44
  br i1 %45, label %46, label %58

46:                                               ; preds = %36
  %47 = load i32, i32* %3, align 4
  %48 = sext i32 %47 to i64
  %49 = getelementptr inbounds [300 x float], [300 x float]* %4, i64 0, i64 %48
  %50 = load float, float* %49, align 4
  %51 = load float, float* %5, align 4
  %52 = fsub float %50, %51
  %53 = call float @_ZSt4fabsf(float %52)
  store float %53, float* %6, align 4
  %54 = load i32, i32* %3, align 4
  %55 = sext i32 %54 to i64
  %56 = getelementptr inbounds [300 x float], [300 x float]* %4, i64 0, i64 %55
  %57 = load float, float* %56, align 4
  store float %57, float* %7, align 4
  br label %58

58:                                               ; preds = %46, %36
  br label %59

59:                                               ; preds = %58
  %60 = load i32, i32* %3, align 4
  %61 = add nsw i32 %60, 1
  store i32 %61, i32* %3, align 4
  br label %32

62:                                               ; preds = %32
  store i32 0, i32* %3, align 4
  br label %63

63:                                               ; preds = %115, %62
  %64 = load i32, i32* %3, align 4
  %65 = load i32, i32* %2, align 4
  %66 = icmp slt i32 %64, %65
  br i1 %66, label %67, label %118

67:                                               ; preds = %63
  %68 = load i32, i32* %3, align 4
  %69 = sext i32 %68 to i64
  %70 = getelementptr inbounds [300 x float], [300 x float]* %4, i64 0, i64 %69
  %71 = load float, float* %70, align 4
  %72 = load float, float* %5, align 4
  %73 = fsub float %71, %72
  %74 = call float @_ZSt4fabsf(float %73)
  %75 = load float, float* %6, align 4
  %76 = fcmp oeq float %74, %75
  br i1 %76, label %77, label %91

77:                                               ; preds = %67
  %78 = load float, float* %7, align 4
  %79 = load i32, i32* %3, align 4
  %80 = sext i32 %79 to i64
  %81 = getelementptr inbounds [300 x float], [300 x float]* %4, i64 0, i64 %80
  %82 = load float, float* %81, align 4
  %83 = fcmp une float %78, %82
  br i1 %83, label %84, label %91

84:                                               ; preds = %77
  %85 = load i32, i32* %3, align 4
  %86 = sext i32 %85 to i64
  %87 = getelementptr inbounds [300 x float], [300 x float]* %4, i64 0, i64 %86
  %88 = load float, float* %87, align 4
  %89 = call dereferenceable(272) %"class.std::basic_ostream"* @_ZNSolsEf(%"class.std::basic_ostream"* @_ZSt4cout, float %88)
  %90 = call dereferenceable(272) %"class.std::basic_ostream"* @_ZStlsISt11char_traitsIcEERSt13basic_ostreamIcT_ES5_PKc(%"class.std::basic_ostream"* dereferenceable(272) %89, i8* getelementptr inbounds ([2 x i8], [2 x i8]* @.str, i64 0, i64 0))
  br label %91

91:                                               ; preds = %84, %77, %67
  %92 = load i32, i32* %3, align 4
  %93 = sext i32 %92 to i64
  %94 = getelementptr inbounds [300 x float], [300 x float]* %4, i64 0, i64 %93
  %95 = load float, float* %94, align 4
  %96 = load float, float* %5, align 4
  %97 = fsub float %95, %96
  %98 = call float @_ZSt4fabsf(float %97)
  %99 = load float, float* %6, align 4
  %100 = fcmp oeq float %98, %99
  br i1 %100, label %101, label %114

101:                                              ; preds = %91
  %102 = load float, float* %7, align 4
  %103 = load i32, i32* %3, align 4
  %104 = sext i32 %103 to i64
  %105 = getelementptr inbounds [300 x float], [300 x float]* %4, i64 0, i64 %104
  %106 = load float, float* %105, align 4
  %107 = fcmp oeq float %102, %106
  br i1 %107, label %108, label %114

108:                                              ; preds = %101
  %109 = load i32, i32* %3, align 4
  %110 = sext i32 %109 to i64
  %111 = getelementptr inbounds [300 x float], [300 x float]* %4, i64 0, i64 %110
  %112 = load float, float* %111, align 4
  %113 = call dereferenceable(272) %"class.std::basic_ostream"* @_ZNSolsEf(%"class.std::basic_ostream"* @_ZSt4cout, float %112)
  br label %114

114:                                              ; preds = %108, %101, %91
  br label %115

115:                                              ; preds = %114
  %116 = load i32, i32* %3, align 4
  %117 = add nsw i32 %116, 1
  store i32 %117, i32* %3, align 4
  br label %63

118:                                              ; preds = %63
  ret i32 0
}

declare dso_local dereferenceable(280) %"class.std::basic_istream"* @_ZNSirsERi(%"class.std::basic_istream"*, i32* dereferenceable(4)) #1

declare dso_local dereferenceable(280) %"class.std::basic_istream"* @_ZNSirsERf(%"class.std::basic_istream"*, float* dereferenceable(4)) #1

; Function Attrs: noinline nounwind uwtable
define linkonce_odr dso_local float @_ZSt4fabsf(float %0) #5 comdat {
  %2 = alloca float, align 4
  store float %0, float* %2, align 4
  %3 = load float, float* %2, align 4
  %4 = call float @llvm.fabs.f32(float %3)
  ret float %4
}

declare dso_local dereferenceable(272) %"class.std::basic_ostream"* @_ZStlsISt11char_traitsIcEERSt13basic_ostreamIcT_ES5_PKc(%"class.std::basic_ostream"* dereferenceable(272), i8*) #1

declare dso_local dereferenceable(272) %"class.std::basic_ostream"* @_ZNSolsEf(%"class.std::basic_ostream"*, float) #1

; Function Attrs: nounwind readnone speculatable willreturn
declare float @llvm.fabs.f32(float) #6

; Function Attrs: noinline uwtable
define internal void @_GLOBAL__sub_I_1986.cpp() #0 section ".text.startup" {
  call void @__cxx_global_var_init()
  ret void
}


!llvm.module.flags = !{!0}
!llvm.ident = !{!1}

!0 = !{i32 1, !"wchar_size", i32 4}
!1 = !{!"clang version 10.0.0-4ubuntu1 "}
