; ModuleID = 'source-C-CXX/20/1986.cpp'
source_filename = "source-C-CXX/20/1986.cpp"
target datalayout = "e-m:e-p270:32:32-p271:32:32-p272:64:64-i64:64-f80:128-n8:16:32:64-S128"
target triple = "x86_64-pc-linux-gnu"

%"class.std::ios_base::Init" = type { i8 }
%"class.std::basic_istream" = type { i32 (...)**, i64, %"class.std::basic_ios" }
%"class.std::basic_ios" = type { %"class.std::ios_base", %"class.std::basic_ostream"*, i8, i8, %"class.std::basic_streambuf"*, %"class.std::ctype"*, %"class.std::num_put"*, %"class.std::num_get"* }
%"class.std::ios_base" = type { i32 (...)**, i64, i64, i32, i32, i32, %"struct.std::ios_base::_Callback_list"*, %"struct.std::ios_base::_Words", [8 x %"struct.std::ios_base::_Words"], i32, %"struct.std::ios_base::_Words"*, %"class.std::locale" }
%"struct.std::ios_base::_Callback_list" = type { %"struct.std::ios_base::_Callback_list"*, void (i32, %"class.std::ios_base"*, i32)*, i32, i32 }
%"struct.std::ios_base::_Words" = type { i8*, i64 }
%"class.std::locale" = type { %"class.std::locale::_Impl"* }
%"class.std::locale::_Impl" = type { i32, %"class.std::locale::facet"**, i64, %"class.std::locale::facet"**, i8** }
%"class.std::locale::facet" = type <{ i32 (...)**, i32, [4 x i8] }>
%"class.std::basic_ostream" = type { i32 (...)**, %"class.std::basic_ios" }
%"class.std::basic_streambuf" = type { i32 (...)**, i8*, i8*, i8*, i8*, i8*, i8*, %"class.std::locale" }
%"class.std::ctype" = type <{ %"class.std::locale::facet.base", [4 x i8], %struct.__locale_struct*, i8, [7 x i8], i32*, i32*, i16*, i8, [256 x i8], [256 x i8], i8, [6 x i8] }>
%"class.std::locale::facet.base" = type <{ i32 (...)**, i32 }>
%struct.__locale_struct = type { [13 x %struct.__locale_data*], i16*, i32*, i32*, [13 x i8*] }
%struct.__locale_data = type opaque
%"class.std::num_put" = type { %"class.std::locale::facet.base", [4 x i8] }
%"class.std::num_get" = type { %"class.std::locale::facet.base", [4 x i8] }

@_ZStL8__ioinit = internal global %"class.std::ios_base::Init" zeroinitializer, align 1
@__dso_handle = external hidden global i8
@_ZSt3cin = external global %"class.std::basic_istream", align 8
@_ZSt4cout = external global %"class.std::basic_ostream", align 8
@.str = private unnamed_addr constant [2 x i8] c",\00", align 1
@llvm.global_ctors = appending global [1 x { i32, void ()*, i8* }] [{ i32, void ()*, i8* } { i32 65535, void ()* @_GLOBAL__sub_I_1986.cpp, i8* null }]

declare void @_ZNSt8ios_base4InitC1Ev(%"class.std::ios_base::Init"* nonnull align 1 dereferenceable(1)) unnamed_addr #0

; Function Attrs: nounwind
declare void @_ZNSt8ios_base4InitD1Ev(%"class.std::ios_base::Init"* nonnull align 1 dereferenceable(1)) unnamed_addr #1

; Function Attrs: nofree nounwind
declare i32 @__cxa_atexit(void (i8*)*, i8*, i8*) local_unnamed_addr #2

; Function Attrs: mustprogress norecurse sspstrong uwtable
define dso_local i32 @main() local_unnamed_addr #3 {
  %1 = alloca i32, align 4
  %2 = alloca [300 x float], align 16
  %3 = bitcast i32* %1 to i8*
  call void @llvm.lifetime.start.p0i8(i64 4, i8* nonnull %3) #7
  %4 = bitcast [300 x float]* %2 to i8*
  call void @llvm.lifetime.start.p0i8(i64 1200, i8* nonnull %4) #7
  %5 = call nonnull align 8 dereferenceable(16) %"class.std::basic_istream"* @_ZNSirsERi(%"class.std::basic_istream"* nonnull align 8 dereferenceable(16) @_ZSt3cin, i32* nonnull align 4 dereferenceable(4) %1)
  %6 = load i32, i32* %1, align 4, !tbaa !5
  %7 = icmp sgt i32 %6, 0
  br i1 %7, label %8, label %99

8:                                                ; preds = %0, %8
  %9 = phi i64 [ %15, %8 ], [ 0, %0 ]
  %10 = phi float [ %14, %8 ], [ 0.000000e+00, %0 ]
  %11 = getelementptr inbounds [300 x float], [300 x float]* %2, i64 0, i64 %9
  %12 = call nonnull align 8 dereferenceable(16) %"class.std::basic_istream"* @_ZNSi10_M_extractIfEERSiRT_(%"class.std::basic_istream"* nonnull align 8 dereferenceable(16) @_ZSt3cin, float* nonnull align 4 dereferenceable(4) %11)
  %13 = load float, float* %11, align 4, !tbaa !9
  %14 = fadd float %10, %13
  %15 = add nuw nsw i64 %9, 1
  %16 = load i32, i32* %1, align 4, !tbaa !5
  %17 = sext i32 %16 to i64
  %18 = icmp slt i64 %15, %17
  br i1 %18, label %8, label %19, !llvm.loop !11

19:                                               ; preds = %8
  %20 = sitofp i32 %16 to float
  %21 = fdiv float %14, %20
  %22 = icmp sgt i32 %16, 0
  br i1 %22, label %23, label %99

23:                                               ; preds = %19
  %24 = zext i32 %16 to i64
  %25 = and i64 %24, 1
  %26 = icmp eq i32 %16, 1
  br i1 %26, label %29, label %27

27:                                               ; preds = %23
  %28 = and i64 %24, 4294967294
  br label %46

29:                                               ; preds = %46, %23
  %30 = phi float [ undef, %23 ], [ %64, %46 ]
  %31 = phi i64 [ 0, %23 ], [ %66, %46 ]
  %32 = phi float [ undef, %23 ], [ %65, %46 ]
  %33 = phi float [ 0.000000e+00, %23 ], [ %64, %46 ]
  %34 = icmp eq i64 %25, 0
  br i1 %34, label %43, label %35

35:                                               ; preds = %29
  %36 = getelementptr inbounds [300 x float], [300 x float]* %2, i64 0, i64 %31
  %37 = load float, float* %36, align 4, !tbaa !9
  %38 = fsub float %37, %21
  %39 = call float @llvm.fabs.f32(float %38) #7
  %40 = fcmp ult float %39, %33
  %41 = select i1 %40, float %32, float %37
  %42 = select i1 %40, float %33, float %39
  br label %43

43:                                               ; preds = %29, %35
  %44 = phi float [ %30, %29 ], [ %42, %35 ]
  %45 = phi float [ %32, %29 ], [ %41, %35 ]
  br i1 %22, label %69, label %99

46:                                               ; preds = %46, %27
  %47 = phi i64 [ 0, %27 ], [ %66, %46 ]
  %48 = phi float [ undef, %27 ], [ %65, %46 ]
  %49 = phi float [ 0.000000e+00, %27 ], [ %64, %46 ]
  %50 = phi i64 [ %28, %27 ], [ %67, %46 ]
  %51 = getelementptr inbounds [300 x float], [300 x float]* %2, i64 0, i64 %47
  %52 = load float, float* %51, align 8, !tbaa !9
  %53 = fsub float %52, %21
  %54 = call float @llvm.fabs.f32(float %53) #7
  %55 = fcmp ult float %54, %49
  %56 = select i1 %55, float %49, float %54
  %57 = select i1 %55, float %48, float %52
  %58 = or i64 %47, 1
  %59 = getelementptr inbounds [300 x float], [300 x float]* %2, i64 0, i64 %58
  %60 = load float, float* %59, align 4, !tbaa !9
  %61 = fsub float %60, %21
  %62 = call float @llvm.fabs.f32(float %61) #7
  %63 = fcmp ult float %62, %56
  %64 = select i1 %63, float %56, float %62
  %65 = select i1 %63, float %57, float %60
  %66 = add nuw nsw i64 %47, 2
  %67 = add i64 %50, -2
  %68 = icmp eq i64 %67, 0
  br i1 %68, label %29, label %46, !llvm.loop !13

69:                                               ; preds = %43, %94
  %70 = phi i64 [ %95, %94 ], [ 0, %43 ]
  %71 = getelementptr inbounds [300 x float], [300 x float]* %2, i64 0, i64 %70
  %72 = load float, float* %71, align 4, !tbaa !9
  %73 = fsub float %72, %21
  %74 = call float @llvm.fabs.f32(float %73) #7
  %75 = fcmp oeq float %74, %44
  %76 = fcmp une float %45, %72
  %77 = select i1 %75, i1 %76, i1 false
  br i1 %77, label %78, label %85

78:                                               ; preds = %69
  %79 = fpext float %72 to double
  %80 = call nonnull align 8 dereferenceable(8) %"class.std::basic_ostream"* @_ZNSo9_M_insertIdEERSoT_(%"class.std::basic_ostream"* nonnull align 8 dereferenceable(8) @_ZSt4cout, double %79)
  %81 = call nonnull align 8 dereferenceable(8) %"class.std::basic_ostream"* @_ZSt16__ostream_insertIcSt11char_traitsIcEERSt13basic_ostreamIT_T0_ES6_PKS3_l(%"class.std::basic_ostream"* nonnull align 8 dereferenceable(8) %80, i8* nonnull getelementptr inbounds ([2 x i8], [2 x i8]* @.str, i64 0, i64 0), i64 1)
  %82 = load float, float* %71, align 4, !tbaa !9
  %83 = fsub float %82, %21
  %84 = call float @llvm.fabs.f32(float %83) #7
  br label %85

85:                                               ; preds = %78, %69
  %86 = phi float [ %84, %78 ], [ %74, %69 ]
  %87 = phi float [ %82, %78 ], [ %72, %69 ]
  %88 = fcmp oeq float %86, %44
  %89 = fcmp oeq float %45, %87
  %90 = select i1 %88, i1 %89, i1 false
  br i1 %90, label %91, label %94

91:                                               ; preds = %85
  %92 = fpext float %87 to double
  %93 = call nonnull align 8 dereferenceable(8) %"class.std::basic_ostream"* @_ZNSo9_M_insertIdEERSoT_(%"class.std::basic_ostream"* nonnull align 8 dereferenceable(8) @_ZSt4cout, double %92)
  br label %94

94:                                               ; preds = %85, %91
  %95 = add nuw nsw i64 %70, 1
  %96 = load i32, i32* %1, align 4, !tbaa !5
  %97 = sext i32 %96 to i64
  %98 = icmp slt i64 %95, %97
  br i1 %98, label %69, label %99, !llvm.loop !14

99:                                               ; preds = %94, %0, %19, %43
  call void @llvm.lifetime.end.p0i8(i64 1200, i8* nonnull %4) #7
  call void @llvm.lifetime.end.p0i8(i64 4, i8* nonnull %3) #7
  ret i32 0
}

; Function Attrs: argmemonly mustprogress nofree nosync nounwind willreturn
declare void @llvm.lifetime.start.p0i8(i64 immarg, i8* nocapture) #4

declare nonnull align 8 dereferenceable(16) %"class.std::basic_istream"* @_ZNSirsERi(%"class.std::basic_istream"* nonnull align 8 dereferenceable(16), i32* nonnull align 4 dereferenceable(4)) local_unnamed_addr #0

; Function Attrs: argmemonly mustprogress nofree nosync nounwind willreturn
declare void @llvm.lifetime.end.p0i8(i64 immarg, i8* nocapture) #4

; Function Attrs: mustprogress nofree nosync nounwind readnone speculatable willreturn
declare float @llvm.fabs.f32(float) #5

declare nonnull align 8 dereferenceable(16) %"class.std::basic_istream"* @_ZNSi10_M_extractIfEERSiRT_(%"class.std::basic_istream"* nonnull align 8 dereferenceable(16), float* nonnull align 4 dereferenceable(4)) local_unnamed_addr #0

declare nonnull align 8 dereferenceable(8) %"class.std::basic_ostream"* @_ZNSo9_M_insertIdEERSoT_(%"class.std::basic_ostream"* nonnull align 8 dereferenceable(8), double) local_unnamed_addr #0

declare nonnull align 8 dereferenceable(8) %"class.std::basic_ostream"* @_ZSt16__ostream_insertIcSt11char_traitsIcEERSt13basic_ostreamIT_T0_ES6_PKS3_l(%"class.std::basic_ostream"* nonnull align 8 dereferenceable(8), i8*, i64) local_unnamed_addr #0

; Function Attrs: sspstrong uwtable
define internal void @_GLOBAL__sub_I_1986.cpp() #6 section ".text.startup" {
  tail call void @_ZNSt8ios_base4InitC1Ev(%"class.std::ios_base::Init"* nonnull align 1 dereferenceable(1) @_ZStL8__ioinit)
  %1 = tail call i32 @__cxa_atexit(void (i8*)* bitcast (void (%"class.std::ios_base::Init"*)* @_ZNSt8ios_base4InitD1Ev to void (i8*)*), i8* getelementptr inbounds (%"class.std::ios_base::Init", %"class.std::ios_base::Init"* @_ZStL8__ioinit, i64 0, i32 0), i8* nonnull @__dso_handle) #7
  ret void
}


!llvm.module.flags = !{!0, !1, !2, !3}
!llvm.ident = !{!4}

!0 = !{i32 1, !"wchar_size", i32 4}
!1 = !{i32 7, !"PIC Level", i32 2}
!2 = !{i32 7, !"PIE Level", i32 2}
!3 = !{i32 7, !"uwtable", i32 1}
!4 = !{!"clang version 13.0.0"}
!5 = !{!6, !6, i64 0}
!6 = !{!"int", !7, i64 0}
!7 = !{!"omnipotent char", !8, i64 0}
!8 = !{!"Simple C++ TBAA"}
!9 = !{!10, !10, i64 0}
!10 = !{!"float", !7, i64 0}
!11 = distinct !{!11, !12}
!12 = !{!"llvm.loop.mustprogress"}
!13 = distinct !{!13, !12}
!14 = distinct !{!14, !12}
